target datalayout = "e-m:e-p270:32:32-p271:32:32-p272:64:64-i64:64-i128:128-f80:128-n8:16:32:64-S128"
target triple = "x86_64-pc-linux-gnu"

%"class.absl::debugging_internal::ElfMemImage" = type { ptr, ptr, ptr, ptr, ptr, i32, i64, i64, i64 }
%struct.Elf64_Verdef = type { i16, i16, i16, i16, i32, i32, i32 }

@.str = private unnamed_addr constant [140 x i8] c"generated/home/dtcxzyw/WorkSpace/Projects/compilers/llvm-opt-benchmark/bench/abseil-cpp/abseil-cpp/absl/debugging/internal/elf_mem_image.cc\00", align 1
@.str.1 = private unnamed_addr constant [20 x i8] c"Check %s failed: %s\00", align 1
@.str.5 = private unnamed_addr constant [19 x i8] c"index out of range\00", align 1
@.str.11 = private unnamed_addr constant [55 x i8] c"0 <= index && static_cast<size_t>(index) <= verdefnum_\00", align 1

; Function Attrs: mustprogress uwtable
define dso_local noundef ptr @_ZNK4absl18debugging_internal11ElfMemImage9GetVerdefEi(ptr noundef nonnull align 8 dereferenceable(72) %0, i32 noundef %1) #0 align 2 {
  %3 = alloca ptr, align 8
  %4 = alloca i32, align 4
  %5 = alloca ptr, align 8
  %6 = alloca ptr, align 8
  %7 = alloca ptr, align 8
  store ptr %0, ptr %3, align 8, !tbaa !4
  store i32 %1, ptr %4, align 4, !tbaa !26
  %8 = load ptr, ptr %3, align 8
  br label %9

9:                                                ; preds = %2
  %10 = load i32, ptr %4, align 4, !tbaa !26
  %11 = icmp sle i32 0, %10
  br i1 %11, label %12, label %18

12:                                               ; preds = %9
  %13 = load i32, ptr %4, align 4, !tbaa !26
  %14 = sext i32 %13 to i64
  %15 = getelementptr inbounds nuw %"class.absl::debugging_internal::ElfMemImage", ptr %8, i32 0, i32 7
  %16 = load i64, ptr %15, align 8, !tbaa !23
  %17 = icmp ule i64 %14, %16
  br label %18

18:                                               ; preds = %12, %9
  %19 = phi i1 [ false, %9 ], [ %17, %12 ]
  %20 = xor i1 %19, true
  %21 = zext i1 %20 to i64
  %22 = call i64 @llvm.expect.i64(i64 %21, i64 0)
  %23 = icmp ne i64 %22, 0
  br i1 %23, label %24, label %30

24:                                               ; preds = %18
  br label %25

25:                                               ; preds = %24
  call void @llvm.lifetime.start.p0(i64 8, ptr %5) #7
  store ptr getelementptr (i8, ptr @.str, i64 123), ptr %5, align 8, !tbaa !10
  call void (i32, ptr, i32, ptr, ...) @_ZN4absl16raw_log_internal6RawLogENS_11LogSeverityEPKciS3_z(i32 noundef 3, ptr noundef getelementptr (i8, ptr @.str, i64 123), i32 noundef 126, ptr noundef @.str.1, ptr noundef @.str.11, ptr noundef @.str.5)
  br label %26

26:                                               ; preds = %25
  unreachable

27:                                               ; No predecessors!
  br label %28

28:                                               ; preds = %27
  call void @llvm.lifetime.end.p0(i64 8, ptr %5) #7
  br label %29

29:                                               ; preds = %28
  br label %30

30:                                               ; preds = %29, %18
  br label %31

31:                                               ; preds = %30
  call void @llvm.lifetime.start.p0(i64 8, ptr %6) #7
  %32 = getelementptr inbounds nuw %"class.absl::debugging_internal::ElfMemImage", ptr %8, i32 0, i32 3
  %33 = load ptr, ptr %32, align 8, !tbaa !20
  store ptr %33, ptr %6, align 8, !tbaa !9
  br label %34

34:                                               ; preds = %48, %31
  %35 = load ptr, ptr %6, align 8, !tbaa !9
  %36 = getelementptr inbounds nuw %struct.Elf64_Verdef, ptr %35, i32 0, i32 2
  %37 = load i16, ptr %36, align 4, !tbaa !48
  %38 = zext i16 %37 to i32
  %39 = load i32, ptr %4, align 4, !tbaa !26
  %40 = icmp slt i32 %38, %39
  br i1 %40, label %41, label %46

41:                                               ; preds = %34
  %42 = load ptr, ptr %6, align 8, !tbaa !9
  %43 = getelementptr inbounds nuw %struct.Elf64_Verdef, ptr %42, i32 0, i32 6
  %44 = load i32, ptr %43, align 4, !tbaa !50
  %45 = icmp ne i32 %44, 0
  br label %46

46:                                               ; preds = %41, %34
  %47 = phi i1 [ false, %34 ], [ %45, %41 ]
  br i1 %47, label %48, label %56

48:                                               ; preds = %46
  call void @llvm.lifetime.start.p0(i64 8, ptr %7) #7
  %49 = load ptr, ptr %6, align 8, !tbaa !9
  store ptr %49, ptr %7, align 8, !tbaa !10
  %50 = load ptr, ptr %7, align 8, !tbaa !10
  %51 = load ptr, ptr %6, align 8, !tbaa !9
  %52 = getelementptr inbounds nuw %struct.Elf64_Verdef, ptr %51, i32 0, i32 6
  %53 = load i32, ptr %52, align 4, !tbaa !50
  %54 = zext i32 %53 to i64
  %55 = getelementptr inbounds nuw i8, ptr %50, i64 %54
  store ptr %55, ptr %6, align 8, !tbaa !9
  call void @llvm.lifetime.end.p0(i64 8, ptr %7) #7
  br label %34, !llvm.loop !51

56:                                               ; preds = %46
  %57 = load ptr, ptr %6, align 8, !tbaa !9
  %58 = getelementptr inbounds nuw %struct.Elf64_Verdef, ptr %57, i32 0, i32 2
  %59 = load i16, ptr %58, align 4, !tbaa !48
  %60 = zext i16 %59 to i32
  %61 = load i32, ptr %4, align 4, !tbaa !26
  %62 = icmp eq i32 %60, %61
  br i1 %62, label %63, label %65

63:                                               ; preds = %56
  %64 = load ptr, ptr %6, align 8, !tbaa !9
  br label %66

65:                                               ; preds = %56
  br label %66

66:                                               ; preds = %65, %63
  %67 = phi ptr [ %64, %63 ], [ null, %65 ]
  call void @llvm.lifetime.end.p0(i64 8, ptr %6) #7
  ret ptr %67
}