; Function Attrs: mustprogress uwtable
define dso_local noundef ptr @_ZNK4absl18debugging_internal11ElfMemImage9GetVerdefEi(ptr noundef nonnull readonly align 8 captures(none) dereferenceable(72) %0, i32 noundef %1) local_unnamed_addr #0 align 2 {
  %3 = icmp slt i32 %1, 0
  %4 = zext nneg i32 %1 to i64
  %5 = getelementptr inbounds nuw i8, ptr %0, i64 56
  %6 = load i64, ptr %5, align 8
  %7 = icmp ult i64 %6, %4
  %8 = select i1 %3, i1 true, i1 %7
  br i1 %8, label %9, label %10, !prof !4

9:                                                ; preds = %2
  tail call void (i32, ptr, i32, ptr, ...) @_ZN4absl16raw_log_internal6RawLogENS_11LogSeverityEPKciS3_z(i32 noundef 3, ptr noundef nonnull getelementptr inbounds nuw (i8, ptr @.str, i64 123), i32 noundef 126, ptr noundef nonnull @.str.1, ptr noundef nonnull @.str.11, ptr noundef nonnull @.str.5)
  unreachable

10:                                               ; preds = %2
  %11 = getelementptr inbounds nuw i8, ptr %0, i64 24
  %12 = load ptr, ptr %11, align 8, !tbaa !31
  %13 = getelementptr inbounds nuw i8, ptr %12, i64 4
  %14 = load i16, ptr %13, align 4, !tbaa !43
  %15 = zext i16 %14 to i32
  %16 = icmp samesign ugt i32 %1, %15
  br i1 %16, label %.lr.ph.preheader, label %.critedge

.lr.ph.preheader:                                 ; preds = %10
  %17 = getelementptr inbounds nuw i8, ptr %12, i64 16
  %18 = load i32, ptr %17, align 4, !tbaa !45
  %.not18 = icmp eq i32 %18, 0
  br i1 %.not18, label %.critedge, label %.lr.ph20

.lr.ph:                                           ; preds = %.lr.ph20
  %19 = getelementptr inbounds nuw i8, ptr %23, i64 16
  %20 = load i32, ptr %19, align 4, !tbaa !45
  %.not = icmp eq i32 %20, 0
  br i1 %.not, label %.critedge, label %.lr.ph20, !llvm.loop !46

.lr.ph20:                                         ; preds = %.lr.ph.preheader, %.lr.ph
  %21 = phi i32 [ %20, %.lr.ph ], [ %18, %.lr.ph.preheader ]
  %.01319 = phi ptr [ %23, %.lr.ph ], [ %12, %.lr.ph.preheader ]
  %22 = zext i32 %21 to i64
  %23 = getelementptr inbounds nuw i8, ptr %.01319, i64 %22
  %24 = getelementptr inbounds nuw i8, ptr %23, i64 4
  %25 = load i16, ptr %24, align 4, !tbaa !43
  %26 = zext i16 %25 to i32
  %27 = icmp samesign ugt i32 %1, %26
  br i1 %27, label %.lr.ph, label %.critedge, !llvm.loop !46

.critedge:                                        ; preds = %.lr.ph20, %.lr.ph, %.lr.ph.preheader, %10
  %.0.lcssa = phi ptr [ %12, %10 ], [ %12, %.lr.ph.preheader ], [ %23, %.lr.ph ], [ %23, %.lr.ph20 ]
  %.lcssa = phi i32 [ %15, %10 ], [ %15, %.lr.ph.preheader ], [ %26, %.lr.ph ], [ %26, %.lr.ph20 ]
  %28 = icmp eq i32 %1, %.lcssa
  %29 = select i1 %28, ptr %.0.lcssa, ptr null
  ret ptr %29
}